target datalayout = "e-m:e-p270:32:32-p271:32:32-p272:64:64-i64:64-i128:128-f80:128-n8:16:32:64-S128"
target triple = "x86_64-pc-linux-gnu"

%class.LibRaw = type { ptr, %struct.libraw_data_t, ptr, %struct.libraw_internal_data_t, [2048 x %struct.decode], ptr, ptr, [10 x %struct.tiff_ifd_t], %class.libraw_memmgr, %struct.libraw_callbacks_t, { i64, i64 }, { i64, i64 }, { i64, i64 }, ptr, ptr, ptr, i64, ptr, ptr, ptr, ptr }
%struct.libraw_data_t = type { ptr, %struct.libraw_image_sizes_t, %struct.libraw_iparams_t, %struct.libraw_lensinfo_t, %struct.libraw_makernotes_t, %struct.libraw_shootinginfo_t, %struct.libraw_output_params_t, %struct.libraw_raw_unpack_params_t, i32, i32, %struct.libraw_colordata_t, %struct.libraw_imgother_t, %struct.libraw_thumbnail_t, %struct.libraw_thumbnail_list_t, %struct.libraw_rawdata_t, ptr }
%struct.libraw_image_sizes_t = type { i16, i16, i16, i16, i16, i16, i16, i16, i32, double, i32, [8 x [4 x i32]], i16, [2 x %struct.libraw_raw_inset_crop_t] }
%struct.libraw_raw_inset_crop_t = type { i16, i16, i16, i16 }
%struct.libraw_iparams_t = type { [4 x i8], [64 x i8], [64 x i8], [64 x i8], [64 x i8], [64 x i8], i32, i32, i32, i32, i32, i32, [6 x [6 x i8]], [6 x [6 x i8]], [5 x i8], i32, ptr }
%struct.libraw_lensinfo_t = type { float, float, float, float, float, [128 x i8], [128 x i8], [128 x i8], [128 x i8], i16, %struct.libraw_nikonlens_t, %struct.libraw_dnglens_t, %struct.libraw_makernotes_lens_t }
%struct.libraw_nikonlens_t = type { float, i8, i8, i8, i8 }
%struct.libraw_dnglens_t = type { float, float, float, float }
%struct.libraw_makernotes_lens_t = type { i64, [128 x i8], i16, i16, i64, i16, i16, [64 x i8], i16, [16 x i8], [16 x i8], float, float, float, float, float, float, float, float, float, float, float, float, float, float, float, i64, [128 x i8], i64, [128 x i8], i64, [128 x i8], i16, float }
%struct.libraw_makernotes_t = type { %struct.libraw_canon_makernotes_t, %struct.libraw_nikon_makernotes_t, %struct.libraw_hasselblad_makernotes_t, %struct.libraw_fuji_info_t, %struct.libraw_olympus_makernotes_t, %struct.libraw_sony_info_t, %struct.libraw_kodak_makernotes_t, %struct.libraw_panasonic_makernotes_t, %struct.libraw_pentax_makernotes_t, %struct.libraw_p1_makernotes_t, %struct.libraw_ricoh_makernotes_t, %struct.libraw_samsung_makernotes_t, %struct.libraw_metadata_common_t }
%struct.libraw_canon_makernotes_t = type { i32, i32, i32, i32, [4 x i32], i32, [4 x i32], i16, i16, i8, i16, i16, i16, i16, i16, i16, i16, i16, i16, i16, i16, i16, i16, i32, float, i16, i16, i16, i32, i16, i32, i32, i16, i32, %struct.libraw_area_t, %struct.libraw_area_t, %struct.libraw_area_t, %struct.libraw_area_t, %struct.libraw_area_t, [2 x i16] }
%struct.libraw_area_t = type { i16, i16, i16, i16 }
%struct.libraw_nikon_makernotes_t = type { double, i16, i16, [7 x i8], i8, i8, [13 x i8], [20 x i8], [4 x i8], [4 x i8], [4 x i8], i8, i8, i8, i8, i8, [2 x i8], i8, i8, i8, i8, i8, [4 x i8], [4 x i8], i8, i16, i32, i32, i32, i32, [4 x double], i8, i8, i8, i32, i32, i32, i8, [4 x i16], i16, %struct.libraw_sensor_highspeed_crop_t, i16, i16, i16, i32, [20 x i8], [20 x i8], i32, i16, double, double, double }
%struct.libraw_sensor_highspeed_crop_t = type { i16, i16, i16, i16 }
%struct.libraw_hasselblad_makernotes_t = type { i32, double, [8 x i8], [64 x i8], [64 x i8], i32, i32, i32, i32, [32 x i8], [64 x i8], i32, [2 x i32], [2 x i32], [4 x [3 x double]] }
%struct.libraw_fuji_info_t = type { float, i16, i16, i16, i16, i16, i16, i16, i16, [33 x i8], [33 x i8], float, i16, i16, [2 x i16], i16, i32, i32, i16, [3 x i16], i16, i16, i16, i16, i16, i32, i16, [13 x i8], [5 x i8], [5 x i8], i32, i16, i32, i16, [9 x i16], [32 x i32], i32, i32, i32, [2 x float], i32 }
%struct.libraw_olympus_makernotes_t = type { [6 x i8], i16, [2 x i32], [5 x i16], i16, [2 x i16], i16, i16, [64 x i32], [5 x double], i16, i8, [3 x i16], [3 x i32], i16, i16, i16, i16, double, [4 x i16], [2 x i32], i8, i32, i16, i16 }
%struct.libraw_sony_info_t = type { i16, i8, i8, i32, i8, i32, i8, i8, i16, [2 x i16], i8, i8, i16, [10 x i8], i8, i8, [4 x i16], i16, i8, i8, i8, i16, i32, i16, [2 x i16], i16, i16, i16, i16, i16, i16, i16, i32, float, i16, i32, i32, i16, [20 x i8], i32, i16, i32, i8, i8, i16, i16, i16, i16, i16, i16, i16, i16, i16, i32, i16, [16 x i8], float }
%struct.libraw_kodak_makernotes_t = type { i16, i16, i16, i16, i16, i16, [3 x [3 x float]], [3 x [3 x float]], [3 x [3 x float]], [3 x [3 x float]], [3 x [3 x float]], [3 x [3 x float]], i16, i16, i16, i16, float, float }
%struct.libraw_panasonic_makernotes_t = type { i16, i16, [8 x float], i32, float, [3 x i32], i16, i16, i32, i32 }
%struct.libraw_pentax_makernotes_t = type { [4 x i8], [2 x i16], [2 x i16], i16, i32, i32, i16, i16, i8, i8, i16 }
%struct.libraw_p1_makernotes_t = type { [64 x i8], [64 x i8], [256 x i8], [64 x i8] }
%struct.libraw_ricoh_makernotes_t = type { i16, [2 x i32], [2 x i32], i16, i32, i32, i32, i32, i16, i16, i16, i16, i16, i16, double, double }
%struct.libraw_samsung_makernotes_t = type { [4 x i32], [4 x i32], [2 x i32], [11 x i32], double, i32, [32 x i8] }
%struct.libraw_metadata_common_t = type { float, float, float, float, float, float, float, float, float, float, float, float, float, float, float, float, i16, [128 x i8], float, [4 x %struct.libraw_afinfo_item_t], i32 }
%struct.libraw_afinfo_item_t = type { i32, i16, i32, i32, ptr }
%struct.libraw_shootinginfo_t = type { i16, i16, i16, i16, i16, i16, i16, [64 x i8], [64 x i8] }
%struct.libraw_output_params_t = type { [4 x i32], [4 x i32], [4 x double], [6 x double], [4 x float], float, float, i32, i32, i32, i32, i32, i32, i32, ptr, ptr, ptr, ptr, i32, i32, i32, i32, i32, i32, [4 x i32], i32, i32, float, float, i32, i32, i32, i32, i32, i32, i32, i32, float, float, i32, i32 }
%struct.libraw_raw_unpack_params_t = type { i32, i32, i32, i32, i32, i32, i32, float, [5 x i8], ptr }
%struct.libraw_colordata_t = type { [65536 x i16], [4104 x i32], i32, i32, i32, [4 x i64], float, float, [8 x [8 x i16]], [4 x float], [4 x float], [3 x [4 x float]], [3 x [4 x float]], [3 x [4 x float]], [4 x [3 x float]], %struct.ph1_t, float, float, [64 x i8], [64 x i8], [64 x i8], [64 x i8], [17 x i8], [64 x i8], ptr, i32, [8 x i32], [2 x %struct.libraw_dng_color_t], %struct.libraw_dng_levels_t, [256 x [4 x i32]], [64 x [5 x float]], i32, [2 x %struct.libraw_P1_color_t], i32, i32 }
%struct.ph1_t = type { i32, i32, i32, i32, i32, i32, i32, i32, float }
%struct.libraw_dng_color_t = type { i32, i16, [4 x [4 x float]], [4 x [3 x float]], [3 x [4 x float]] }
%struct.libraw_dng_levels_t = type { i32, [4104 x i32], i32, [4104 x float], float, [4 x i32], [4 x i16], [4 x float], i32, [4 x float], [4 x float], float, float }
%struct.libraw_P1_color_t = type { [9 x float] }
%struct.libraw_imgother_t = type { float, float, float, float, i64, i32, [32 x i32], %struct.libraw_gps_info_t, [512 x i8], [64 x i8], [4 x float] }
%struct.libraw_gps_info_t = type { [3 x float], [3 x float], [3 x float], float, i8, i8, i8, i8, i8 }
%struct.libraw_thumbnail_t = type { i32, i16, i16, i32, i32, ptr }
%struct.libraw_thumbnail_list_t = type { i32, [8 x %struct.libraw_thumbnail_item_t] }
%struct.libraw_thumbnail_item_t = type { i32, i16, i16, i16, i32, i32, i64 }
%struct.libraw_rawdata_t = type { ptr, ptr, ptr, ptr, ptr, ptr, ptr, ptr, ptr, %struct.libraw_iparams_t, %struct.libraw_image_sizes_t, %struct.libraw_internal_output_params_t, %struct.libraw_colordata_t }
%struct.libraw_internal_output_params_t = type { i32, i32, i32, i16, i16 }
%struct.libraw_internal_data_t = type { %struct.internal_data_t, %struct.libraw_internal_output_params_t, %struct.output_data_t, %struct.identify_data_t, %struct.unpacker_data_t }
%struct.internal_data_t = type { ptr, ptr, i32, ptr, i64, i64, [4 x i32] }
%struct.output_data_t = type { ptr, ptr }
%struct.identify_data_t = type { i32, i64, i64, i32, i32, i32 }
%struct.unpacker_data_t = type { i16, [4 x i16], [3 x i16], i32, i64, i64, i64, i64, i64, i64, i32, i32, i32, i32, i32, i32, i32, i32, i32, i32, i32, i32, i32, i32, i32, i32, i32, i64, i32, i32, i32, i32, i32, i32, i32, i32, i32, %struct.pana8_tags_t, [16 x %struct.crx_data_header_t], i32, i32, i16, i16, i32, i32, i32, i32, i32, i32, i32, [20 x i32], i16 }
%struct.pana8_tags_t = type { [6 x i32], [6 x i16], i16, [4 x i16], [17 x i16], [17 x i16], [17 x i16], i16, i16, [5 x i64], [5 x i16], [5 x i32], [5 x i16], [5 x i16] }
%struct.crx_data_header_t = type { i32, i32, i32, i32, i32, i32, i32, i32, i32, i32, i32, i32, i32, i32, i32, i64, i32, ptr, i32, i32, i32, ptr, i32, ptr }
%struct.decode = type { [2 x ptr], i32 }
%struct.tiff_ifd_t = type { i32, i32, i32, i32, i32, i32, i32, i32, i32, i32, i32, i32, i32, i32, i32, ptr, i32, ptr, i32, i32, i32, i32, i32, i32, i32, float, i64, i64, i32, [2 x %struct.libraw_dng_color_t], %struct.libraw_dng_levels_t, i32 }
%class.libraw_memmgr = type <{ ptr, i32, [4 x i8] }>
%struct.libraw_callbacks_t = type { ptr, ptr, ptr, ptr, ptr, ptr, ptr, ptr, ptr, ptr, ptr, ptr, ptr, ptr, ptr, ptr, ptr }

; Function Attrs: mustprogress uwtable
define void @_ZN6LibRaw24hasselblad_full_load_rawEv(ptr noundef nonnull align 8 dereferenceable(767680) %0) #0 align 2 {
  %2 = alloca ptr, align 8
  %3 = alloca i32, align 4
  %4 = alloca i32, align 4
  store ptr %0, ptr %2, align 8, !tbaa !6
  %5 = load ptr, ptr %2, align 8
  call void @llvm.lifetime.start.p0(i64 4, ptr %3) #14
  call void @llvm.lifetime.start.p0(i64 4, ptr %4) #14
  store i32 0, ptr %3, align 4, !tbaa !83
  br label %6

6:                                                ; preds = %73, %1
  %7 = load i32, ptr %3, align 4, !tbaa !83
  %8 = getelementptr inbounds nuw %class.LibRaw, ptr %5, i32 0, i32 1
  %9 = getelementptr inbounds nuw %struct.libraw_data_t, ptr %8, i32 0, i32 1
  %10 = getelementptr inbounds nuw %struct.libraw_image_sizes_t, ptr %9, i32 0, i32 2
  %11 = load i16, ptr %10, align 4, !tbaa !87
  %12 = zext i16 %11 to i32
  %13 = icmp slt i32 %7, %12
  br i1 %13, label %14, label %76

14:                                               ; preds = %6
  store i32 0, ptr %4, align 4, !tbaa !83
  br label %15

15:                                               ; preds = %69, %14
  %16 = load i32, ptr %4, align 4, !tbaa !83
  %17 = getelementptr inbounds nuw %class.LibRaw, ptr %5, i32 0, i32 1
  %18 = getelementptr inbounds nuw %struct.libraw_data_t, ptr %17, i32 0, i32 1
  %19 = getelementptr inbounds nuw %struct.libraw_image_sizes_t, ptr %18, i32 0, i32 3
  %20 = load i16, ptr %19, align 2, !tbaa !89
  %21 = zext i16 %20 to i32
  %22 = icmp slt i32 %16, %21
  br i1 %22, label %23, label %72

23:                                               ; preds = %15
  %24 = getelementptr inbounds nuw %class.LibRaw, ptr %5, i32 0, i32 1
  %25 = getelementptr inbounds nuw %struct.libraw_data_t, ptr %24, i32 0, i32 0
  %26 = load ptr, ptr %25, align 8, !tbaa !118
  %27 = load i32, ptr %3, align 4, !tbaa !83
  %28 = getelementptr inbounds nuw %class.LibRaw, ptr %5, i32 0, i32 1
  %29 = getelementptr inbounds nuw %struct.libraw_data_t, ptr %28, i32 0, i32 1
  %30 = getelementptr inbounds nuw %struct.libraw_image_sizes_t, ptr %29, i32 0, i32 3
  %31 = load i16, ptr %30, align 2, !tbaa !89
  %32 = zext i16 %31 to i32
  %33 = mul nsw i32 %27, %32
  %34 = load i32, ptr %4, align 4, !tbaa !83
  %35 = add nsw i32 %33, %34
  %36 = sext i32 %35 to i64
  %37 = getelementptr inbounds [4 x i16], ptr %26, i64 %36
  %38 = getelementptr inbounds [4 x i16], ptr %37, i64 0, i64 2
  call void @_ZN6LibRaw11read_shortsEPtj(ptr noundef nonnull align 8 dereferenceable(767680) %5, ptr noundef %38, i32 noundef 1)
  %39 = getelementptr inbounds nuw %class.LibRaw, ptr %5, i32 0, i32 1
  %40 = getelementptr inbounds nuw %struct.libraw_data_t, ptr %39, i32 0, i32 0
  %41 = load ptr, ptr %40, align 8, !tbaa !118
  %42 = load i32, ptr %3, align 4, !tbaa !83
  %43 = getelementptr inbounds nuw %class.LibRaw, ptr %5, i32 0, i32 1
  %44 = getelementptr inbounds nuw %struct.libraw_data_t, ptr %43, i32 0, i32 1
  %45 = getelementptr inbounds nuw %struct.libraw_image_sizes_t, ptr %44, i32 0, i32 3
  %46 = load i16, ptr %45, align 2, !tbaa !89
  %47 = zext i16 %46 to i32
  %48 = mul nsw i32 %42, %47
  %49 = load i32, ptr %4, align 4, !tbaa !83
  %50 = add nsw i32 %48, %49
  %51 = sext i32 %50 to i64
  %52 = getelementptr inbounds [4 x i16], ptr %41, i64 %51
  %53 = getelementptr inbounds [4 x i16], ptr %52, i64 0, i64 1
  call void @_ZN6LibRaw11read_shortsEPtj(ptr noundef nonnull align 8 dereferenceable(767680) %5, ptr noundef %53, i32 noundef 1)
  %54 = getelementptr inbounds nuw %class.LibRaw, ptr %5, i32 0, i32 1
  %55 = getelementptr inbounds nuw %struct.libraw_data_t, ptr %54, i32 0, i32 0
  %56 = load ptr, ptr %55, align 8, !tbaa !118
  %57 = load i32, ptr %3, align 4, !tbaa !83
  %58 = getelementptr inbounds nuw %class.LibRaw, ptr %5, i32 0, i32 1
  %59 = getelementptr inbounds nuw %struct.libraw_data_t, ptr %58, i32 0, i32 1
  %60 = getelementptr inbounds nuw %struct.libraw_image_sizes_t, ptr %59, i32 0, i32 3
  %61 = load i16, ptr %60, align 2, !tbaa !89
  %62 = zext i16 %61 to i32
  %63 = mul nsw i32 %57, %62
  %64 = load i32, ptr %4, align 4, !tbaa !83
  %65 = add nsw i32 %63, %64
  %66 = sext i32 %65 to i64
  %67 = getelementptr inbounds [4 x i16], ptr %56, i64 %66
  %68 = getelementptr inbounds [4 x i16], ptr %67, i64 0, i64 0
  call void @_ZN6LibRaw11read_shortsEPtj(ptr noundef nonnull align 8 dereferenceable(767680) %5, ptr noundef %68, i32 noundef 1)
  br label %69

69:                                               ; preds = %23
  %70 = load i32, ptr %4, align 4, !tbaa !83
  %71 = add nsw i32 %70, 1
  store i32 %71, ptr %4, align 4, !tbaa !83
  br label %15, !llvm.loop !119

72:                                               ; preds = %15
  br label %73

73:                                               ; preds = %72
  %74 = load i32, ptr %3, align 4, !tbaa !83
  %75 = add nsw i32 %74, 1
  store i32 %75, ptr %3, align 4, !tbaa !83
  br label %6, !llvm.loop !120

76:                                               ; preds = %6
  call void @llvm.lifetime.end.p0(i64 4, ptr %4) #14
  call void @llvm.lifetime.end.p0(i64 4, ptr %3) #14
  ret void
}