; Function Attrs: mustprogress uwtable
define void @_ZN6LibRaw24hasselblad_full_load_rawEv(ptr noundef nonnull align 8 dereferenceable(767680) %0) local_unnamed_addr #0 align 2 {
  %2 = getelementptr inbounds nuw i8, ptr %0, i64 8
  %3 = getelementptr inbounds nuw i8, ptr %0, i64 20
  %4 = load i16, ptr %3, align 4, !tbaa !82
  %.not = icmp eq i16 %4, 0
  br i1 %.not, label %._crit_edge14, label %.preheader.lr.ph

.preheader.lr.ph:                                 ; preds = %1
  %5 = getelementptr inbounds nuw i8, ptr %0, i64 22
  %.pre = load i16, ptr %5, align 2, !tbaa !84
  br label %.preheader

.preheader:                                       ; preds = %.preheader.lr.ph, %._crit_edge
  %6 = phi i16 [ %4, %.preheader.lr.ph ], [ %33, %._crit_edge ]
  %7 = phi i16 [ %.pre, %.preheader.lr.ph ], [ %34, %._crit_edge ]
  %.01013 = phi i32 [ 0, %.preheader.lr.ph ], [ %35, %._crit_edge ]
  %.not15 = icmp eq i16 %7, 0
  br i1 %.not15, label %._crit_edge, label %.lr.ph.preheader

.lr.ph.preheader:                                 ; preds = %.preheader
  %8 = zext i16 %7 to i32
  br label %.lr.ph

.lr.ph:                                           ; preds = %.lr.ph.preheader, %.lr.ph
  %9 = phi i32 [ %31, %.lr.ph ], [ %8, %.lr.ph.preheader ]
  %.012 = phi i32 [ %29, %.lr.ph ], [ 0, %.lr.ph.preheader ]
  %10 = load ptr, ptr %2, align 8, !tbaa !115
  %11 = mul nuw nsw i32 %9, %.01013
  %12 = add nuw nsw i32 %11, %.012
  %13 = zext nneg i32 %12 to i64
  %14 = getelementptr inbounds nuw [4 x i16], ptr %10, i64 %13, i64 2
  tail call void @_ZN6LibRaw11read_shortsEPtj(ptr noundef nonnull align 8 dereferenceable(767680) %0, ptr noundef nonnull %14, i32 noundef 1)
  %15 = load ptr, ptr %2, align 8, !tbaa !115
  %16 = load i16, ptr %5, align 2, !tbaa !84
  %17 = zext i16 %16 to i32
  %18 = mul nuw nsw i32 %.01013, %17
  %19 = add nuw nsw i32 %18, %.012
  %20 = zext nneg i32 %19 to i64
  %21 = getelementptr inbounds nuw [4 x i16], ptr %15, i64 %20, i64 1
  tail call void @_ZN6LibRaw11read_shortsEPtj(ptr noundef nonnull align 8 dereferenceable(767680) %0, ptr noundef nonnull %21, i32 noundef 1)
  %22 = load ptr, ptr %2, align 8, !tbaa !115
  %23 = load i16, ptr %5, align 2, !tbaa !84
  %24 = zext i16 %23 to i32
  %25 = mul nuw nsw i32 %.01013, %24
  %26 = add nuw nsw i32 %25, %.012
  %27 = zext nneg i32 %26 to i64
  %28 = getelementptr inbounds nuw [4 x i16], ptr %22, i64 %27
  tail call void @_ZN6LibRaw11read_shortsEPtj(ptr noundef nonnull align 8 dereferenceable(767680) %0, ptr noundef %28, i32 noundef 1)
  %29 = add nuw nsw i32 %.012, 1
  %30 = load i16, ptr %5, align 2, !tbaa !84
  %31 = zext i16 %30 to i32
  %32 = icmp samesign ult i32 %29, %31
  br i1 %32, label %.lr.ph, label %._crit_edge.loopexit, !llvm.loop !116

._crit_edge.loopexit:                             ; preds = %.lr.ph
  %.pre16 = load i16, ptr %3, align 4, !tbaa !82
  br label %._crit_edge

._crit_edge:                                      ; preds = %._crit_edge.loopexit, %.preheader
  %33 = phi i16 [ %.pre16, %._crit_edge.loopexit ], [ %6, %.preheader ]
  %34 = phi i16 [ %30, %._crit_edge.loopexit ], [ 0, %.preheader ]
  %35 = add nuw nsw i32 %.01013, 1
  %36 = zext i16 %33 to i32
  %37 = icmp samesign ult i32 %35, %36
  br i1 %37, label %.preheader, label %._crit_edge14, !llvm.loop !117

._crit_edge14:                                    ; preds = %._crit_edge, %1
  ret void
}